target datalayout = "e-m:e-p270:32:32-p271:32:32-p272:64:64-i64:64-i128:128-f80:128-n8:16:32:64-S128"
target triple = "x86_64-pc-linux-gnu"

%struct.cpool = type { %struct.Curl_hash, i64, i64, i64, %struct.curltime, %struct.Curl_llist, ptr, ptr, ptr, ptr, i8 }
%struct.Curl_hash = type { ptr, ptr, ptr, ptr, i64, i64 }
%struct.curltime = type { i64, i32 }
%struct.Curl_llist = type { ptr, ptr, ptr, i64 }
%struct.easy_pollset = type { [5 x i32], i32, [5 x i8] }
%struct.Curl_share = type { i32, i32, i32, ptr, ptr, ptr, %struct.cpool, %struct.Curl_hash, ptr, %struct.PslCache, ptr, ptr }
%struct.PslCache = type { ptr, i64, i8 }

; Function Attrs: nounwind uwtable
define hidden i32 @Curl_cpool_add_waitfds(ptr noundef %0, ptr noundef %1) #0 {
  %3 = alloca ptr, align 8
  %4 = alloca ptr, align 8
  %5 = alloca i32, align 4
  %6 = alloca ptr, align 8
  %7 = alloca %struct.easy_pollset, align 4
  %8 = alloca ptr, align 8
  store ptr %0, ptr %3, align 8, !tbaa !3
  store ptr %1, ptr %4, align 8, !tbaa !154
  call void @llvm.lifetime.start.p0(i64 4, ptr %5) #7
  store i32 0, ptr %5, align 4, !tbaa !89
  br label %9

9:                                                ; preds = %2
  %10 = load ptr, ptr %3, align 8, !tbaa !3
  %11 = icmp ne ptr %10, null
  br i1 %11, label %12, label %39

12:                                               ; preds = %9
  %13 = load ptr, ptr %3, align 8, !tbaa !3
  %14 = getelementptr inbounds nuw %struct.cpool, ptr %13, i32 0, i32 8
  %15 = load ptr, ptr %14, align 8, !tbaa !87
  %16 = icmp ne ptr %15, null
  br i1 %16, label %17, label %30

17:                                               ; preds = %12
  %18 = load ptr, ptr %3, align 8, !tbaa !3
  %19 = getelementptr inbounds nuw %struct.cpool, ptr %18, i32 0, i32 8
  %20 = load ptr, ptr %19, align 8, !tbaa !87
  %21 = getelementptr inbounds nuw %struct.Curl_share, ptr %20, i32 0, i32 1
  %22 = load i32, ptr %21, align 4, !tbaa !90
  %23 = and i32 %22, 32
  %24 = icmp ne i32 %23, 0
  br i1 %24, label %25, label %30

25:                                               ; preds = %17
  %26 = load ptr, ptr %3, align 8, !tbaa !3
  %27 = getelementptr inbounds nuw %struct.cpool, ptr %26, i32 0, i32 6
  %28 = load ptr, ptr %27, align 8, !tbaa !15
  %29 = call i32 @Curl_share_lock(ptr noundef %28, i32 noundef 5, i32 noundef 2)
  br label %30

30:                                               ; preds = %25, %17, %12
  br label %31

31:                                               ; preds = %30
  br label %32

32:                                               ; preds = %31
  br label %33

33:                                               ; preds = %32
  %34 = load ptr, ptr %3, align 8, !tbaa !3
  %35 = getelementptr inbounds nuw %struct.cpool, ptr %34, i32 0, i32 10
  %36 = load i8, ptr %35, align 8
  %37 = and i8 %36, -2
  %38 = or i8 %37, 1
  store i8 %38, ptr %35, align 8
  br label %39

39:                                               ; preds = %33, %9
  br label %40

40:                                               ; preds = %39
  br label %41

41:                                               ; preds = %40
  %42 = load ptr, ptr %3, align 8, !tbaa !3
  %43 = getelementptr inbounds nuw %struct.cpool, ptr %42, i32 0, i32 5
  %44 = call ptr @Curl_llist_head(ptr noundef %43)
  %45 = icmp ne ptr %44, null
  br i1 %45, label %46, label %74

46:                                               ; preds = %41
  call void @llvm.lifetime.start.p0(i64 8, ptr %6) #7
  call void @llvm.lifetime.start.p0(i64 32, ptr %7) #7
  call void @llvm.lifetime.start.p0(i64 8, ptr %8) #7
  %47 = load ptr, ptr %3, align 8, !tbaa !3
  %48 = getelementptr inbounds nuw %struct.cpool, ptr %47, i32 0, i32 5
  %49 = call ptr @Curl_llist_head(ptr noundef %48)
  store ptr %49, ptr %6, align 8, !tbaa !125
  br label %50

50:                                               ; preds = %70, %46
  %51 = load ptr, ptr %6, align 8, !tbaa !125
  %52 = icmp ne ptr %51, null
  br i1 %52, label %53, label %73

53:                                               ; preds = %50
  %54 = load ptr, ptr %6, align 8, !tbaa !125
  %55 = call ptr @Curl_node_elem(ptr noundef %54)
  store ptr %55, ptr %8, align 8, !tbaa !95
  call void @llvm.memset.p0.i64(ptr align 4 %7, i8 0, i64 32, i1 false)
  %56 = load ptr, ptr %3, align 8, !tbaa !3
  %57 = getelementptr inbounds nuw %struct.cpool, ptr %56, i32 0, i32 6
  %58 = load ptr, ptr %57, align 8, !tbaa !15
  %59 = load ptr, ptr %8, align 8, !tbaa !95
  call void @Curl_attach_connection(ptr noundef %58, ptr noundef %59)
  %60 = load ptr, ptr %3, align 8, !tbaa !3
  %61 = getelementptr inbounds nuw %struct.cpool, ptr %60, i32 0, i32 6
  %62 = load ptr, ptr %61, align 8, !tbaa !15
  call void @Curl_conn_adjust_pollset(ptr noundef %62, ptr noundef %7)
  %63 = load ptr, ptr %3, align 8, !tbaa !3
  %64 = getelementptr inbounds nuw %struct.cpool, ptr %63, i32 0, i32 6
  %65 = load ptr, ptr %64, align 8, !tbaa !15
  call void @Curl_detach_connection(ptr noundef %65)
  %66 = load ptr, ptr %4, align 8, !tbaa !154
  %67 = call i32 @Curl_waitfds_add_ps(ptr noundef %66, ptr noundef %7)
  %68 = load i32, ptr %5, align 4, !tbaa !89
  %69 = add i32 %68, %67
  store i32 %69, ptr %5, align 4, !tbaa !89
  br label %70

70:                                               ; preds = %53
  %71 = load ptr, ptr %6, align 8, !tbaa !125
  %72 = call ptr @Curl_node_next(ptr noundef %71)
  store ptr %72, ptr %6, align 8, !tbaa !125
  br label %50, !llvm.loop !156

73:                                               ; preds = %50
  call void @llvm.lifetime.end.p0(i64 8, ptr %8) #7
  call void @llvm.lifetime.end.p0(i64 32, ptr %7) #7
  call void @llvm.lifetime.end.p0(i64 8, ptr %6) #7
  br label %74

74:                                               ; preds = %73, %41
  br label %75

75:                                               ; preds = %74
  %76 = load ptr, ptr %3, align 8, !tbaa !3
  %77 = icmp ne ptr %76, null
  br i1 %77, label %78, label %105

78:                                               ; preds = %75
  br label %79

79:                                               ; preds = %78
  br label %80

80:                                               ; preds = %79
  br label %81

81:                                               ; preds = %80
  %82 = load ptr, ptr %3, align 8, !tbaa !3
  %83 = getelementptr inbounds nuw %struct.cpool, ptr %82, i32 0, i32 10
  %84 = load i8, ptr %83, align 8
  %85 = and i8 %84, -2
  %86 = or i8 %85, 0
  store i8 %86, ptr %83, align 8
  %87 = load ptr, ptr %3, align 8, !tbaa !3
  %88 = getelementptr inbounds nuw %struct.cpool, ptr %87, i32 0, i32 8
  %89 = load ptr, ptr %88, align 8, !tbaa !87
  %90 = icmp ne ptr %89, null
  br i1 %90, label %91, label %104

91:                                               ; preds = %81
  %92 = load ptr, ptr %3, align 8, !tbaa !3
  %93 = getelementptr inbounds nuw %struct.cpool, ptr %92, i32 0, i32 8
  %94 = load ptr, ptr %93, align 8, !tbaa !87
  %95 = getelementptr inbounds nuw %struct.Curl_share, ptr %94, i32 0, i32 1
  %96 = load i32, ptr %95, align 4, !tbaa !90
  %97 = and i32 %96, 32
  %98 = icmp ne i32 %97, 0
  br i1 %98, label %99, label %104

99:                                               ; preds = %91
  %100 = load ptr, ptr %3, align 8, !tbaa !3
  %101 = getelementptr inbounds nuw %struct.cpool, ptr %100, i32 0, i32 6
  %102 = load ptr, ptr %101, align 8, !tbaa !15
  %103 = call i32 @Curl_share_unlock(ptr noundef %102, i32 noundef 5)
  br label %104

104:                                              ; preds = %99, %91, %81
  br label %105

105:                                              ; preds = %104, %75
  br label %106

106:                                              ; preds = %105
  br label %107

107:                                              ; preds = %106
  %108 = load i32, ptr %5, align 4, !tbaa !89
  call void @llvm.lifetime.end.p0(i64 4, ptr %5) #7
  ret i32 %108
}