; Function Attrs: nounwind uwtable
define hidden i32 @Curl_cpool_add_waitfds(ptr noundef %0, ptr noundef %1) local_unnamed_addr #0 {
  %3 = alloca %struct.easy_pollset, align 4
  %.not = icmp eq ptr %0, null
  br i1 %.not, label %19, label %4

4:                                                ; preds = %2
  %5 = getelementptr inbounds nuw i8, ptr %0, i64 136
  %6 = load ptr, ptr %5, align 8, !tbaa !81
  %.not26 = icmp eq ptr %6, null
  br i1 %.not26, label %15, label %7

7:                                                ; preds = %4
  %8 = getelementptr inbounds nuw i8, ptr %6, i64 4
  %9 = load i32, ptr %8, align 4, !tbaa !89
  %10 = and i32 %9, 32
  %.not27 = icmp eq i32 %10, 0
  br i1 %.not27, label %15, label %11

11:                                               ; preds = %7
  %12 = getelementptr inbounds nuw i8, ptr %0, i64 120
  %13 = load ptr, ptr %12, align 8, !tbaa !3
  %14 = tail call i32 @Curl_share_lock(ptr noundef %13, i32 noundef 5, i32 noundef 2) #8
  br label %15

15:                                               ; preds = %4, %7, %11
  %16 = getelementptr inbounds nuw i8, ptr %0, i64 152
  %17 = load i8, ptr %16, align 8
  %18 = or i8 %17, 1
  store i8 %18, ptr %16, align 8
  br label %19

19:                                               ; preds = %15, %2
  %20 = getelementptr inbounds nuw i8, ptr %0, i64 88
  %21 = tail call ptr @Curl_llist_head(ptr noundef nonnull %20) #8
  %.not28 = icmp eq ptr %21, null
  br i1 %.not28, label %33, label %22

22:                                               ; preds = %19
  call void @llvm.lifetime.start.p0(i64 32, ptr nonnull %3) #8
  %23 = tail call ptr @Curl_llist_head(ptr noundef nonnull %20) #8
  %.not2932 = icmp eq ptr %23, null
  br i1 %.not2932, label %._crit_edge, label %.lr.ph

.lr.ph:                                           ; preds = %22
  %24 = getelementptr inbounds nuw i8, ptr %0, i64 120
  br label %25

25:                                               ; preds = %.lr.ph, %25
  %.034 = phi i32 [ 0, %.lr.ph ], [ %31, %25 ]
  %.02133 = phi ptr [ %23, %.lr.ph ], [ %32, %25 ]
  %26 = call ptr @Curl_node_elem(ptr noundef nonnull %.02133) #8
  call void @llvm.memset.p0.i64(ptr noundef nonnull align 4 dereferenceable(32) %3, i8 0, i64 32, i1 false)
  %27 = load ptr, ptr %24, align 8, !tbaa !3
  call void @Curl_attach_connection(ptr noundef %27, ptr noundef %26) #8
  %28 = load ptr, ptr %24, align 8, !tbaa !3
  call void @Curl_conn_adjust_pollset(ptr noundef %28, ptr noundef nonnull %3) #8
  %29 = load ptr, ptr %24, align 8, !tbaa !3
  call void @Curl_detach_connection(ptr noundef %29) #8
  %30 = call i32 @Curl_waitfds_add_ps(ptr noundef %1, ptr noundef nonnull %3) #8
  %31 = add i32 %30, %.034
  %32 = call ptr @Curl_node_next(ptr noundef nonnull %.02133) #8
  %.not29 = icmp eq ptr %32, null
  br i1 %.not29, label %._crit_edge, label %25, !llvm.loop !152

._crit_edge:                                      ; preds = %25, %22
  %.0.lcssa = phi i32 [ 0, %22 ], [ %31, %25 ]
  call void @llvm.lifetime.end.p0(i64 32, ptr nonnull %3) #8
  br label %33

33:                                               ; preds = %._crit_edge, %19
  %.1 = phi i32 [ %.0.lcssa, %._crit_edge ], [ 0, %19 ]
  %34 = getelementptr inbounds nuw i8, ptr %0, i64 152
  %35 = load i8, ptr %34, align 8
  %36 = and i8 %35, -2
  store i8 %36, ptr %34, align 8
  %37 = getelementptr inbounds nuw i8, ptr %0, i64 136
  %38 = load ptr, ptr %37, align 8, !tbaa !81
  %.not30 = icmp eq ptr %38, null
  br i1 %.not30, label %47, label %39

39:                                               ; preds = %33
  %40 = getelementptr inbounds nuw i8, ptr %38, i64 4
  %41 = load i32, ptr %40, align 4, !tbaa !89
  %42 = and i32 %41, 32
  %.not31 = icmp eq i32 %42, 0
  br i1 %.not31, label %47, label %43

43:                                               ; preds = %39
  %44 = getelementptr inbounds nuw i8, ptr %0, i64 120
  %45 = load ptr, ptr %44, align 8, !tbaa !3
  %46 = call i32 @Curl_share_unlock(ptr noundef %45, i32 noundef 5) #8
  br label %47

47:                                               ; preds = %33, %39, %43
  ret i32 %.1
}